(lp0
(dp1
Vcreated_time
p2
V2019-04-19T13:18:59+0000
p3
sVid
p4
V10155992226401246_10155987361086246
p5
sa(dp6
Vcreated_time
p7
V2019-04-18T13:12:27+0000
p8
sVid
p9
V10155992226401246_10155985323006246
p10
sa(dp11
Vcreated_time
p12
V2019-04-13T17:20:40+0000
p13
sVmessage
p14
V\u05e1\u05d9\u05e0\u05d9 \u2600\ufe0f
p15
sVid
p16
V10155992226401246_10155975236211246
p17
sa(dp18
Vcreated_time
p19
V2019-02-11T19:06:53+0000
p20
sVmessage
p21
V\u05ea\u05d4\u05d9\u05d5 \u05d0\u05e0\u05e9\u05d9\u05dd \u05d8\u05d5\u05d1\u05d9\u05dd \u05d5\u05ea\u05e2\u05d6\u05e8\u05d5 \u05dc\u05d4 \u05dc\u05e1\u05d9\u05d9\u05dd \u05d0\u05ea \u05d4\u05ea\u05d5\u05d0\u05e8 \U0001f64f\u000aAyana Cohen
p22
sVid
p23
V10155992226401246_10155854714721246
p24
sa(dp25
Vcreated_time
p26
V2018-10-01T12:34:01+0000
p27
sVmessage
p28
VVacation Mood \u2600\ufe0f
p29
sVid
p30
V10155992226401246_10155594988636246
p31
sa(dp32
Vcreated_time
p33
V2018-07-25T11:05:39+0000
p34
sVid
p35
V10155992226401246_10155456018006246
p36
sa(dp37
Vcreated_time
p38
V2018-07-19T16:46:09+0000
p39
sVmessage
p40
V\u05ea\u05d5\u05d3\u05d4 \u05d0\u05dc\u05d5\u05e4\u05d9\u05dd \u05de\u05d5\u05de\u05dc\u05e5 \u05d0\u05dc\u05d5\u05e4\u05d9\u05dd \u05d1\u05de\u05d7\u05d9\u05e8\u05d9\u05dd \U0001f917
p41
sVid
p42
V10155992226401246_10155444615256246
p43
sa(dp44
Vcreated_time
p45
V2018-06-26T07:55:55+0000
p46
sVid
p47
V10155992226401246_10155395258051246
p48
sa(dp49
Vcreated_time
p50
V2018-06-16T18:00:24+0000
p51
sVmessage
p52
V\u05d0\u05d6 \u05d2\u05dd \u05d0\u05e0\u05d7\u05e0\u05d5 \u05e2\u05d5\u05d6\u05d1\u05d9\u05dd \u05d0\u05ea \u05d9\u05e8\u05d5\u05e9\u05dc\u05d9\u05dd \u05dc\u05d8\u05d5\u05d1\u05ea \u05d4\u05de\u05e8\u05db\u05d6, \u05d5\u05e6\u05e8\u05d9\u05db\u05d9\u05dd \u05e9\u05ea\u05e2\u05d6\u05e8\u05d5 \u05dc\u05e0\u05d5 \u05dc\u05de\u05e6\u05d5\u05d0 \u05de\u05d7\u05dc\u05d9\u05e4\u05d9\u05dd!\u000a\u000a\u05dc\u05d4\u05e9\u05db\u05e8\u05d4 \u05d3\u05d9\u05e8\u05ea 2 \u05d7\u05d3\u05e8\u05d9\u05dd \u05de\u05e8\u05d5\u05d5\u05d7\u05ea \u05d5\u05de\u05d5\u05d0\u05e8\u05ea \u05d1\u05e7\u05dc\u05d9\u05d9\u05e0\u05de\u05df (\u05e7\u05e8\u05d9\u05ea \u05d9\u05d5\u05d1\u05dc), \u05e7\u05d5\u05de\u05d4 \u05e9\u05dc\u05d9\u05e9\u05d9\u05ea \u05dc\u05dc\u05d0 \u05de\u05e2\u05dc\u05d9\u05ea. \u05d9\u05e9 \u05de\u05e8\u05e4\u05e1\u05ea \u05e2\u05e0\u05e7\u05d9\u05ea. \u05d1\u05d3\u05d9\u05e8\u05d4 \u05e0\u05e9\u05d0\u05e8\u05d9\u05dd \u05de\u05e7\u05e8\u05e8, \u05d0\u05e8\u05d5\u05df \u05d2\u05d3\u05d5\u05dc, \u05de\u05d6\u05e0\u05d5\u05df \u05d5\u05e1\u05e4\u05d5\u05ea \u05d1\u05de\u05e8\u05e4\u05e1\u05ea. \u05db\u05e0\u05d9\u05e1\u05d4 \u05d120.7. 4,000 \u05dc\u05d7\u05d5\u05d3\u05e9 \u05db\u05d5\u05dc\u05dc \u05d0\u05e8\u05e0\u05d5\u05e0\u05d4, \u05d5\u05e2\u05d3 \u05d1\u05d9\u05ea \u05d5\u05d2\u05d6. \u05dc\u05e4\u05e8\u05d8\u05d9\u05dd \u05d1\u05e4\u05e8\u05d8\u05d9 \u05d0\u05d5 \u05d1\u05de\u05e1\u05e4\u05e8 054-6543498
p53
sVid
p54
V10155992226401246_10155375068261246
p55
sa(dp56
Vcreated_time
p57
V2018-05-22T18:56:41+0000
p58
sVid
p59
V10155992226401246_10155323558591246
p60
sa(dp61
Vcreated_time
p62
V2018-03-25T08:00:03+0000
p63
sVid
p64
V10155992226401246_10155200520961246
p65
sa(dp66
Vcreated_time
p67
V2018-03-25T08:00:03+0000
p68
sVid
p69
V10155992226401246_10155200519901246
p70
sa(dp71
Vcreated_time
p72
V2018-03-25T08:00:03+0000
p73
sVid
p74
V10155992226401246_10155200521146246
p75
sa(dp76
Vcreated_time
p77
V2018-03-25T08:00:03+0000
p78
sVmessage
p79
V\u05e2\u05e9\u05d9\u05ea\u05dd \u05dc\u05e0\u05d5 \u05e9\u05de\u05d7 \u05e2\u05dc \u05d4\u05dc\u05d1! \u05d0\u05d5\u05d4\u05d1\u05d9\u05dd \u05d0\u05ea\u05db\u05dd!!\u000a\u05d5\u05e2\u05db\u05e9\u05d9\u05d5...\u05ea\u05d9\u05d9\u05d2\u05d5 \u05d0\u05ea \u05e2\u05e6\u05de\u05db\u05dd :)
p80
sVid
p81
V10155992226401246_10155200519911246
p82
sa(dp83
Vcreated_time
p84
V2018-03-25T05:49:45+0000
p85
sVid
p86
V10155992226401246_10155200245101246
p87
sa(dp88
Vcreated_time
p89
V2018-03-25T05:49:45+0000
p90
sVid
p91
V10155992226401246_10155200245776246
p92
sa(dp93
Vcreated_time
p94
V2018-03-25T05:49:45+0000
p95
sVid
p96
V10155992226401246_10155200246021246
p97
sa(dp98
Vcreated_time
p99
V2018-03-25T05:49:45+0000
p100
sVid
p101
V10155992226401246_10155200244821246
p102
sa(dp103
Vcreated_time
p104
V2018-03-25T05:49:45+0000
p105
sVid
p106
V10155992226401246_10155200246711246
p107
sa(dp108
Vcreated_time
p109
V2018-03-24T21:54:44+0000
p110
sVmessage
p111
V\u05e2\u05e9\u05d9\u05ea\u05dd \u05dc\u05e0\u05d5 \u05e9\u05de\u05d7 \u05e2\u05dc \u05d4\u05dc\u05d1! \u05d0\u05d5\u05d4\u05d1\u05d9\u05dd \u05d0\u05ea\u05db\u05dd!!\u000a\u05d5\u05e2\u05db\u05e9\u05d9\u05d5...\u05ea\u05d9\u05d9\u05d2\u05d5 \u05d0\u05ea \u05e2\u05e6\u05de\u05db\u05dd :)
p112
sVid
p113
V10155992226401246_10155199169921246
p114
sa.